target datalayout = "e-m:e-p270:32:32-p271:32:32-p272:64:64-i64:64-i128:128-f80:128-n8:16:32:64-S128"
target triple = "x86_64-pc-linux-gnu"

%struct.AVFilterContext = type { ptr, ptr, ptr, ptr, ptr, i32, ptr, ptr, i32, ptr, ptr, i32, i32, ptr, ptr, ptr, ptr, i32, ptr, i32, i32 }
%struct.LUT2Context = type { ptr, %struct.FFFrameSync, i32, [4 x ptr], [4 x ptr], [6 x double], [4 x ptr], [4 x i32], [4 x i32], [4 x i32], [4 x i32], [4 x i32], [4 x i32], i32, i32, i32, i32, i32, i32, i32, ptr, ptr }
%struct.FFFrameSync = type { ptr, ptr, i32, %struct.AVRational, i64, ptr, ptr, i32, i32, i8, i8, ptr, i32, i32, i32, i32 }
%struct.AVRational = type { i32, i32 }
%struct.AVFilter = type { ptr, ptr, ptr, ptr, ptr, i32 }

@.str.2 = private unnamed_addr constant [6 x i8] c"tlut2\00", align 1
@.str.40 = private unnamed_addr constant [34 x i8] c"Unsupported output bit depth %d.\0A\00", align 1

; Function Attrs: cold nounwind optsize uwtable
define internal i32 @init(ptr noundef %0) #1 {
  %2 = alloca i32, align 4
  %3 = alloca ptr, align 8
  %4 = alloca ptr, align 8
  %5 = alloca i32, align 4
  store ptr %0, ptr %3, align 8, !tbaa !4
  call void @llvm.lifetime.start.p0(i64 8, ptr %4) #12
  %6 = load ptr, ptr %3, align 8, !tbaa !4
  %7 = getelementptr inbounds nuw %struct.AVFilterContext, ptr %6, i32 0, i32 9
  %8 = load ptr, ptr %7, align 8, !tbaa !9
  store ptr %8, ptr %4, align 8, !tbaa !22
  %9 = load ptr, ptr %3, align 8, !tbaa !4
  %10 = getelementptr inbounds nuw %struct.AVFilterContext, ptr %9, i32 0, i32 1
  %11 = load ptr, ptr %10, align 8, !tbaa !46
  %12 = getelementptr inbounds nuw %struct.AVFilter, ptr %11, i32 0, i32 0
  %13 = load ptr, ptr %12, align 8, !tbaa !47
  %14 = call i32 @strcmp(ptr noundef %13, ptr noundef @.str.2) #14
  %15 = icmp ne i32 %14, 0
  %16 = xor i1 %15, true
  %17 = zext i1 %16 to i32
  %18 = load ptr, ptr %4, align 8, !tbaa !22
  %19 = getelementptr inbounds nuw %struct.LUT2Context, ptr %18, i32 0, i32 19
  store i32 %17, ptr %19, align 8, !tbaa !31
  %20 = load ptr, ptr %4, align 8, !tbaa !22
  %21 = getelementptr inbounds nuw %struct.LUT2Context, ptr %20, i32 0, i32 2
  %22 = load i32, ptr %21, align 8, !tbaa !38
  %23 = icmp eq i32 %22, 0
  br i1 %23, label %59, label %24

24:                                               ; preds = %1
  %25 = load ptr, ptr %4, align 8, !tbaa !22
  %26 = getelementptr inbounds nuw %struct.LUT2Context, ptr %25, i32 0, i32 2
  %27 = load i32, ptr %26, align 8, !tbaa !38
  %28 = icmp eq i32 %27, 8
  br i1 %28, label %59, label %29

29:                                               ; preds = %24
  %30 = load ptr, ptr %4, align 8, !tbaa !22
  %31 = getelementptr inbounds nuw %struct.LUT2Context, ptr %30, i32 0, i32 2
  %32 = load i32, ptr %31, align 8, !tbaa !38
  %33 = icmp eq i32 %32, 9
  br i1 %33, label %59, label %34

34:                                               ; preds = %29
  %35 = load ptr, ptr %4, align 8, !tbaa !22
  %36 = getelementptr inbounds nuw %struct.LUT2Context, ptr %35, i32 0, i32 2
  %37 = load i32, ptr %36, align 8, !tbaa !38
  %38 = icmp eq i32 %37, 10
  br i1 %38, label %59, label %39

39:                                               ; preds = %34
  %40 = load ptr, ptr %4, align 8, !tbaa !22
  %41 = getelementptr inbounds nuw %struct.LUT2Context, ptr %40, i32 0, i32 2
  %42 = load i32, ptr %41, align 8, !tbaa !38
  %43 = icmp eq i32 %42, 12
  br i1 %43, label %59, label %44

44:                                               ; preds = %39
  %45 = load ptr, ptr %4, align 8, !tbaa !22
  %46 = getelementptr inbounds nuw %struct.LUT2Context, ptr %45, i32 0, i32 2
  %47 = load i32, ptr %46, align 8, !tbaa !38
  %48 = icmp eq i32 %47, 14
  br i1 %48, label %59, label %49

49:                                               ; preds = %44
  %50 = load ptr, ptr %4, align 8, !tbaa !22
  %51 = getelementptr inbounds nuw %struct.LUT2Context, ptr %50, i32 0, i32 2
  %52 = load i32, ptr %51, align 8, !tbaa !38
  %53 = icmp eq i32 %52, 16
  br i1 %53, label %59, label %54

54:                                               ; preds = %49
  %55 = load ptr, ptr %3, align 8, !tbaa !4
  %56 = load ptr, ptr %4, align 8, !tbaa !22
  %57 = getelementptr inbounds nuw %struct.LUT2Context, ptr %56, i32 0, i32 2
  %58 = load i32, ptr %57, align 8, !tbaa !38
  call void (ptr, i32, ptr, ...) @av_log(ptr noundef %55, i32 noundef 16, ptr noundef @.str.40, i32 noundef %58)
  store i32 -22, ptr %2, align 4
  store i32 1, ptr %5, align 4
  br label %60

59:                                               ; preds = %49, %44, %39, %34, %29, %24, %1
  store i32 0, ptr %2, align 4
  store i32 1, ptr %5, align 4
  br label %60

60:                                               ; preds = %59, %54
  call void @llvm.lifetime.end.p0(i64 8, ptr %4) #12
  %61 = load i32, ptr %2, align 4
  ret i32 %61
}