; Function Attrs: cold nounwind optsize uwtable
define internal range(i32 -22, 1) i32 @init(ptr noundef %0) #1 {
  %2 = getelementptr inbounds nuw i8, ptr %0, i64 72
  %3 = load ptr, ptr %2, align 8, !tbaa !4
  %4 = getelementptr inbounds nuw i8, ptr %0, i64 8
  %5 = load ptr, ptr %4, align 8, !tbaa !38
  %6 = load ptr, ptr %5, align 8, !tbaa !39
  %7 = tail call i32 @strcmp(ptr noundef nonnull dereferenceable(1) %6, ptr noundef nonnull dereferenceable(6) @.str.2) #13
  %.not = icmp eq i32 %7, 0
  %8 = zext i1 %.not to i32
  %9 = getelementptr inbounds nuw i8, ptr %3, i64 376
  store i32 %8, ptr %9, align 8, !tbaa !24
  %10 = getelementptr inbounds nuw i8, ptr %3, i64 104
  %11 = load i32, ptr %10, align 8, !tbaa !32
  %12 = icmp ult i32 %11, 17
  %switch.shifted = lshr i32 87809, %11
  %switch.lobit = trunc i32 %switch.shifted to i1
  %or.cond = select i1 %12, i1 %switch.lobit, i1 false
  br i1 %or.cond, label %switch.lookup, label %13

13:                                               ; preds = %1
  tail call void (ptr, i32, ptr, ...) @av_log(ptr noundef nonnull %0, i32 noundef 16, ptr noundef nonnull @.str.40, i32 noundef %11) #11
  br label %switch.lookup

switch.lookup:                                    ; preds = %1, %13
  %.0 = phi i32 [ -22, %13 ], [ 0, %1 ]
  ret i32 %.0
}